; Function Attrs: nounwind sspstrong uwtable
define hidden range(i64 0, 21) i64 @rb_objspace_gc_disable(ptr noundef %0) local_unnamed_addr #0 {
  %2 = getelementptr i8, ptr %0, i64 20
  %.val = load i16, ptr %2, align 4
  %3 = and i16 %.val, 8
  %.not.i = icmp eq i16 %3, 0
  tail call fastcc void @gc_rest(ptr noundef %0)
  %4 = load i16, ptr %2, align 4
  %5 = or i16 %4, 8
  store i16 %5, ptr %2, align 4
  %6 = select i1 %.not.i, i64 0, i64 20
  ret i64 %6
}